; Function Attrs: mustprogress uwtable
define noundef i32 @_ZNK3re23RE218ReverseProgramSizeEv(ptr noundef nonnull align 8 dereferenceable(148) %this) local_unnamed_addr #2 align 2 {
entry:
  %prog_ = getelementptr inbounds nuw i8, ptr %this, i64 104
  %0 = load ptr, ptr %prog_, align 8
  %cmp = icmp eq ptr %0, null
  br i1 %cmp, label %return, label %if.end

if.end:                                           ; preds = %entry
  %call = tail call noundef ptr @_ZNK3re23RE211ReverseProgEv(ptr noundef nonnull align 8 dereferenceable(148) %this)
  %cmp2 = icmp eq ptr %call, null
  br i1 %cmp2, label %return, label %if.end4

if.end4:                                          ; preds = %if.end
  %size_.i = getelementptr inbounds nuw i8, ptr %call, i64 16
  %1 = load i32, ptr %size_.i, align 8
  br label %return

return:                                           ; preds = %if.end, %entry, %if.end4
  %retval.0 = phi i32 [ %1, %if.end4 ], [ -1, %entry ], [ -1, %if.end ]
  ret i32 %retval.0
}